; Function Attrs: nofree norecurse nosync nounwind memory(read, inaccessiblemem: none) uwtable
define i32 @Mvc_CoverWorstLiteral(ptr noundef readonly captures(none) %0, ptr noundef readonly %1) local_unnamed_addr #0 {
  %3 = getelementptr inbounds nuw i8, ptr %0, i64 8
  %4 = load i32, ptr %3, align 8
  %5 = icmp sgt i32 %4, 0
  br i1 %5, label %.lr.ph49, label %._crit_edge50.thread

.lr.ph49:                                         ; preds = %2
  %.not = icmp eq ptr %1, null
  %6 = getelementptr inbounds nuw i8, ptr %1, i64 16
  %7 = getelementptr inbounds nuw i8, ptr %0, i64 16
  br i1 %.not, label %.lr.ph49.split.us, label %.lr.ph49.split

.lr.ph49.split.us:                                ; preds = %.lr.ph49
  %.03441.us = load ptr, ptr %7, align 8
  %.not3742.us = icmp eq ptr %.03441.us, null
  br i1 %.not3742.us, label %._crit_edge50.thread, label %.lr.ph.us

.lr.ph.us:                                        ; preds = %.lr.ph49.split.us, %._crit_edge.us
  %.02947.us = phi i32 [ %spec.select40.us, %._crit_edge.us ], [ 1000000, %.lr.ph49.split.us ]
  %.03146.us = phi i32 [ %spec.select39.us, %._crit_edge.us ], [ -1, %.lr.ph49.split.us ]
  %.03345.us = phi i32 [ %19, %._crit_edge.us ], [ 0, %.lr.ph49.split.us ]
  %8 = lshr i32 %.03345.us, 5
  %9 = and i32 %.03345.us, 31
  %10 = zext nneg i32 %8 to i64
  br label %11

11:                                               ; preds = %.lr.ph.us, %11
  %.03444.us = phi ptr [ %.03441.us, %.lr.ph.us ], [ %.034.us, %11 ]
  %.02843.us = phi i32 [ 0, %.lr.ph.us ], [ %spec.select.us, %11 ]
  %12 = getelementptr inbounds nuw i8, ptr %.03444.us, i64 16
  %13 = getelementptr inbounds nuw [1 x i32], ptr %12, i64 0, i64 %10
  %14 = load i32, ptr %13, align 4
  %15 = lshr i32 %14, %9
  %16 = and i32 %15, 1
  %spec.select.us = add nuw nsw i32 %16, %.02843.us
  %.034.us = load ptr, ptr %.03444.us, align 8
  %.not37.us = icmp eq ptr %.034.us, null
  br i1 %.not37.us, label %._crit_edge.us, label %11, !llvm.loop !9

._crit_edge.us:                                   ; preds = %11
  %17 = icmp samesign ugt i32 %spec.select.us, 1
  %18 = icmp sgt i32 %.02947.us, %spec.select.us
  %or.cond.us = select i1 %17, i1 %18, i1 false
  %spec.select39.us = select i1 %or.cond.us, i32 %.03345.us, i32 %.03146.us
  %spec.select40.us = select i1 %or.cond.us, i32 %spec.select.us, i32 %.02947.us
  %19 = add nuw nsw i32 %.03345.us, 1
  %exitcond58.not = icmp eq i32 %19, %4
  br i1 %exitcond58.not, label %._crit_edge50, label %.lr.ph.us, !llvm.loop !10

.lr.ph49.split:                                   ; preds = %.lr.ph49, %35
  %.02947 = phi i32 [ %.130, %35 ], [ 1000000, %.lr.ph49 ]
  %.03146 = phi i32 [ %.132, %35 ], [ -1, %.lr.ph49 ]
  %.03345 = phi i32 [ %36, %35 ], [ 0, %.lr.ph49 ]
  %20 = lshr i32 %.03345, 5
  %21 = zext nneg i32 %20 to i64
  %22 = getelementptr inbounds nuw [1 x i32], ptr %6, i64 0, i64 %21
  %23 = load i32, ptr %22, align 4
  %24 = and i32 %.03345, 31
  %25 = shl nuw i32 1, %24
  %26 = and i32 %23, %25
  %.not36 = icmp eq i32 %26, 0
  br i1 %.not36, label %35, label %27

27:                                               ; preds = %.lr.ph49.split
  %.03441 = load ptr, ptr %7, align 8
  %.not3742 = icmp eq ptr %.03441, null
  br i1 %.not3742, label %._crit_edge, label %.lr.ph

.lr.ph:                                           ; preds = %27, %.lr.ph
  %.03444 = phi ptr [ %.034, %.lr.ph ], [ %.03441, %27 ]
  %.02843 = phi i32 [ %spec.select, %.lr.ph ], [ 0, %27 ]
  %28 = getelementptr inbounds nuw i8, ptr %.03444, i64 16
  %29 = getelementptr inbounds nuw [1 x i32], ptr %28, i64 0, i64 %21
  %30 = load i32, ptr %29, align 4
  %31 = lshr i32 %30, %24
  %32 = and i32 %31, 1
  %spec.select = add nuw nsw i32 %32, %.02843
  %.034 = load ptr, ptr %.03444, align 8
  %.not37 = icmp eq ptr %.034, null
  br i1 %.not37, label %._crit_edge, label %.lr.ph, !llvm.loop !9

._crit_edge:                                      ; preds = %.lr.ph, %27
  %.028.lcssa = phi i32 [ 0, %27 ], [ %spec.select, %.lr.ph ]
  %33 = icmp samesign ugt i32 %.028.lcssa, 1
  %34 = icmp sgt i32 %.02947, %.028.lcssa
  %or.cond = select i1 %33, i1 %34, i1 false
  %spec.select39 = select i1 %or.cond, i32 %.03345, i32 %.03146
  %spec.select40 = select i1 %or.cond, i32 %.028.lcssa, i32 %.02947
  br label %35

35:                                               ; preds = %._crit_edge, %.lr.ph49.split
  %.132 = phi i32 [ %.03146, %.lr.ph49.split ], [ %spec.select39, %._crit_edge ]
  %.130 = phi i32 [ %.02947, %.lr.ph49.split ], [ %spec.select40, %._crit_edge ]
  %36 = add nuw nsw i32 %.03345, 1
  %exitcond.not = icmp eq i32 %36, %4
  br i1 %exitcond.not, label %._crit_edge50, label %.lr.ph49.split, !llvm.loop !10

._crit_edge50:                                    ; preds = %35, %._crit_edge.us
  %.031.lcssa = phi i32 [ %spec.select39.us, %._crit_edge.us ], [ %.132, %35 ]
  %.029.lcssa = phi i32 [ %spec.select40.us, %._crit_edge.us ], [ %.130, %35 ]
  %.029.lcssa.fr = freeze i32 %.029.lcssa
  %37 = icmp slt i32 %.029.lcssa.fr, 1000000
  %spec.select63 = select i1 %37, i32 %.031.lcssa, i32 -1
  br label %._crit_edge50.thread

._crit_edge50.thread:                             ; preds = %._crit_edge50, %.lr.ph49.split.us, %2
  %38 = phi i32 [ -1, %2 ], [ -1, %.lr.ph49.split.us ], [ %spec.select63, %._crit_edge50 ]
  ret i32 %38
}